(ideluge.core.torrentmanager
TorrentManagerState
p1
(dp2
S'torrents'
p3
(lp4
(ideluge.core.torrentmanager
TorrentState
p5
(dp6
S'max_download_speed'
p7
I-1
sS'move_completed_path'
p8
V/mnt/Data/Downloads/Torrents/Complete/TV
p9
sS'paused'
p10
I00
sS'max_upload_slots'
p11
I-1
sS'prioritize_first_last'
p12
I00
sS'max_connections'
p13
I-1
sS'compact'
p14
I00
sS'queue'
p15
I0
sS'file_priorities'
p16
(lp17
I4
aI4
aI4
asS'filename'
p18
S'86cfb62988b116635023a543f4441f6b09555841'
p19
sS'max_upload_speed'
p20
I-1
sS'save_path'
p21
V/mnt/Data/Downloads/Torrents/Complete
p22
sS'time_added'
p23
F1508559107.6847789
sS'total_uploaded'
p24
I524288
sS'torrent_id'
p25
S'86cfb62988b116635023a543f4441f6b09555841'
p26
sS'auto_managed'
p27
I01
sS'stop_at_ratio'
p28
I00
sS'move_completed'
p29
I01
sS'trackers'
p30
(lp31
(dp32
S'send_stats'
p33
I01
sS'fails'
p34
I0
sS'verified'
p35
I00
sS'scrape_incomplete'
p36
I-1
sS'min_announce'
p37
NsS'source'
p38
I4
sS'url'
p39
S'http://tracker.trackerfix.com:80/announce'
p40
sS'last_error'
p41
(dp42
S'category'
p43
S'system'
p44
sS'value'
p45
I0
ssS'fail_limit'
p46
I0
sS'next_announce'
p47
NsS'complete_sent'
p48
I00
sS'scrape_downloaded'
p49
I-1
sS'trackerid'
p50
S''
sS'start_sent'
p51
I00
sS'tier'
p52
I0
sS'scrape_complete'
p53
I-1
sS'message'
p54
S''
sS'updating'
p55
I00
sa(dp56
S'send_stats'
p57
I01
sS'fails'
p58
I0
sS'verified'
p59
I00
sS'scrape_incomplete'
p60
I-1
sS'min_announce'
p61
NsS'source'
p62
I4
sS'url'
p63
S'udp://9.rarbg.me:2710'
p64
sS'last_error'
p65
(dp66
S'category'
p67
S'system'
p68
sS'value'
p69
I0
ssS'fail_limit'
p70
I0
sS'next_announce'
p71
NsS'complete_sent'
p72
I00
sS'scrape_downloaded'
p73
I-1
sS'trackerid'
p74
S''
sS'start_sent'
p75
I00
sS'tier'
p76
I1
sS'scrape_complete'
p77
I-1
sS'message'
p78
S''
sS'updating'
p79
I00
sa(dp80
S'send_stats'
p81
I01
sS'fails'
p82
I0
sS'verified'
p83
I00
sS'scrape_incomplete'
p84
I-1
sS'min_announce'
p85
NsS'source'
p86
I4
sS'url'
p87
S'udp://9.rarbg.to:2710'
p88
sS'last_error'
p89
(dp90
S'category'
p91
S'system'
p92
sS'value'
p93
I0
ssS'fail_limit'
p94
I0
sS'next_announce'
p95
NsS'complete_sent'
p96
I00
sS'scrape_downloaded'
p97
I-1
sS'trackerid'
p98
S''
sS'start_sent'
p99
I00
sS'tier'
p100
I2
sS'scrape_complete'
p101
I-1
sS'message'
p102
S''
sS'updating'
p103
I00
sa(dp104
S'send_stats'
p105
I01
sS'fails'
p106
I0
sS'verified'
p107
I00
sS'scrape_incomplete'
p108
I-1
sS'min_announce'
p109
NsS'source'
p110
I4
sS'url'
p111
S'udp://open.demonii.com:1337/announce'
p112
sS'last_error'
p113
(dp114
S'category'
p115
S'system'
p116
sS'value'
p117
I0
ssS'fail_limit'
p118
I0
sS'next_announce'
p119
NsS'complete_sent'
p120
I00
sS'scrape_downloaded'
p121
I-1
sS'trackerid'
p122
S''
sS'start_sent'
p123
I00
sS'tier'
p124
I3
sS'scrape_complete'
p125
I-1
sS'message'
p126
S''
sS'updating'
p127
I00
sasS'magnet'
p128
NsS'remove_at_ratio'
p129
I00
sS'stop_ratio'
p130
F2
sS'is_finished'
p131
I00
sba(ideluge.core.torrentmanager
TorrentState
p132
(dp133
g7
I-1
sg8
V/mnt/Data/Downloads/Torrents/Complete/TV
p134
sg10
I00
sg11
I-1
sg12
I00
sg13
I-1
sg14
I00
sg15
I2
sg16
(lp135
I4
aI4
aI4
aI4
aI4
aI4
aI4
aI4
aI4
aI4
aI4
aI4
aI4
aI4
aI4
aI4
aI4
aI4
aI4
aI4
aI4
aI4
aI4
aI4
aI4
aI4
aI4
aI4
aI4
aI4
aI4
aI4
aI4
aI4
aI4
aI4
aI4
aI4
aI4
aI4
aI4
aI4
aI4
aI4
aI4
aI4
aI4
aI4
aI4
aI4
aI4
aI4
aI4
aI4
aI4
aI4
aI4
aI4
aI4
aI4
aI4
aI4
aI4
aI4
aI4
aI4
aI4
asg18
S'ef87ad55ae3d2ef8299af06e5268dd0dc19c3e7c'
p136
sg20
I-1
sg21
V/mnt/Data/Downloads/Torrents/Complete
p137
sg23
F1508559451.321378
sg24
I2604900678
sg25
S'ef87ad55ae3d2ef8299af06e5268dd0dc19c3e7c'
p138
sg27
I01
sg28
I00
sg29
I01
sg30
(lp139
(dp140
S'send_stats'
p141
I01
sS'fails'
p142
I0
sS'verified'
p143
I00
sS'scrape_incomplete'
p144
I-1
sS'min_announce'
p145
NsS'scrape_downloaded'
p146
I-1
sS'url'
p147
S'http://tracker.trackerfix.com:80/announce'
p148
sS'last_error'
p149
(dp150
S'category'
p151
S'system'
p152
sS'value'
p153
I0
ssS'fail_limit'
p154
I0
sS'next_announce'
p155
NsS'complete_sent'
p156
I00
sS'source'
p157
I4
sS'trackerid'
p158
S''
sS'start_sent'
p159
I00
sS'tier'
p160
I0
sS'scrape_complete'
p161
I-1
sS'message'
p162
S''
sS'updating'
p163
I00
sa(dp164
S'send_stats'
p165
I01
sS'fails'
p166
I0
sS'verified'
p167
I00
sS'scrape_incomplete'
p168
I-1
sS'min_announce'
p169
NsS'scrape_downloaded'
p170
I-1
sS'url'
p171
S'udp://9.rarbg.me:2710'
p172
sS'last_error'
p173
(dp174
S'category'
p175
S'system'
p176
sS'value'
p177
I0
ssS'fail_limit'
p178
I0
sS'next_announce'
p179
NsS'complete_sent'
p180
I00
sS'source'
p181
I4
sS'trackerid'
p182
S''
sS'start_sent'
p183
I00
sS'tier'
p184
I1
sS'scrape_complete'
p185
I-1
sS'message'
p186
S''
sS'updating'
p187
I00
sa(dp188
S'send_stats'
p189
I01
sS'fails'
p190
I0
sS'verified'
p191
I00
sS'scrape_incomplete'
p192
I-1
sS'min_announce'
p193
NsS'scrape_downloaded'
p194
I-1
sS'url'
p195
S'udp://9.rarbg.to:2710'
p196
sS'last_error'
p197
(dp198
S'category'
p199
S'system'
p200
sS'value'
p201
I0
ssS'fail_limit'
p202
I0
sS'next_announce'
p203
NsS'complete_sent'
p204
I00
sS'source'
p205
I4
sS'trackerid'
p206
S''
sS'start_sent'
p207
I00
sS'tier'
p208
I2
sS'scrape_complete'
p209
I-1
sS'message'
p210
S''
sS'updating'
p211
I00
sa(dp212
S'send_stats'
p213
I01
sS'fails'
p214
I0
sS'verified'
p215
I00
sS'scrape_incomplete'
p216
I-1
sS'min_announce'
p217
NsS'scrape_downloaded'
p218
I-1
sS'url'
p219
S'udp://open.demonii.com:1337/announce'
p220
sS'last_error'
p221
(dp222
S'category'
p223
S'system'
p224
sS'value'
p225
I0
ssS'fail_limit'
p226
I0
sS'next_announce'
p227
NsS'complete_sent'
p228
I00
sS'source'
p229
I4
sS'trackerid'
p230
S''
sS'start_sent'
p231
I00
sS'tier'
p232
I3
sS'scrape_complete'
p233
I-1
sS'message'
p234
S''
sS'updating'
p235
I00
sasg128
Nsg129
I00
sg130
F2
sg131
I00
sba(ideluge.core.torrentmanager
TorrentState
p236
(dp237
g7
F-1
sg8
S'/mnt/Data/Downloads'
p238
sg10
I00
sg11
I-1
sg12
I00
sg13
I-1
sg14
I00
sg15
I3
sg16
(lp239
I1
aI1
aI1
aI1
aI1
aI1
aI1
aI1
aI1
aI1
aI1
aI1
aI1
aI1
aI1
aI1
aI1
aI1
aI1
aI1
aI1
aI1
aI1
aI1
aI1
aI1
aI1
aI1
aI1
aI1
aI1
aI1
aI1
aI1
aI1
aI1
aI1
aI1
aI1
aI1
aI1
aI1
aI1
aI1
aI1
aI1
aI1
aI1
aI1
aI1
aI1
aI1
aI1
aI1
aI1
aI1
aI1
aI1
aI1
aI1
aI1
aI1
aI1
aI1
aI1
aI1
aI1
aI1
aI1
aI1
aI1
aI1
aI1
aI1
aI1
aI1
aI1
aI1
aI1
aI1
aI1
aI1
aI1
aI1
aI1
aI1
aI1
aI1
aI1
aI1
aI1
aI1
aI1
aI1
aI1
aI1
aI1
aI1
aI1
aI1
aI1
aI1
aI1
aI1
aI1
aI1
aI1
aI1
aI1
aI1
aI1
aI1
aI1
aI1
aI1
aI1
aI1
aI1
aI1
aI1
aI1
aI1
aI1
aI1
aI1
aI1
aI1
aI1
aI1
aI1
aI1
aI1
aI1
aI1
aI1
aI1
aI1
aI1
aI1
aI1
aI1
aI1
aI1
aI1
aI1
aI1
aI1
aI1
aI1
aI1
aI1
aI1
aI1
aI1
aI1
aI1
aI1
aI1
aI1
aI1
aI1
aI1
aI1
aI1
aI1
aI1
aI1
aI1
aI1
aI1
aI1
aI1
aI1
aI1
aI1
aI1
aI1
aI1
aI1
aI1
aI1
aI1
aI1
aI1
aI1
aI1
aI1
aI1
aI1
aI1
aI1
aI1
aI1
aI1
aI1
aI1
aI1
aI1
aI1
aI1
aI1
aI1
aI1
aI1
aI1
aI1
aI1
aI1
aI1
aI1
aI1
aI1
aI1
aI1
aI1
aI1
aI1
aI1
aI1
aI1
aI1
aI1
aI1
aI1
aI1
aI1
aI1
aI1
aI1
aI1
aI1
aI1
aI1
aI1
aI1
aI1
aI1
aI1
aI1
aI1
aI1
aI1
aI1
aI1
aI1
aI1
aI1
aI1
aI1
aI1
aI1
aI1
aI1
aI1
aI1
aI1
aI1
aI1
aI1
aI1
aI1
aI1
aI1
aI1
aI1
aI1
aI1
aI1
aI1
aI1
aI1
aI1
aI1
aI1
aI1
aI1
aI1
aI1
aI1
aI1
aI1
aI1
aI1
aI1
aI1
aI1
aI1
aI1
aI1
aI1
aI1
aI1
aI1
aI1
aI1
aI1
aI1
aI1
aI1
aI1
aI1
aI1
aI1
aI1
aI1
aI1
aI1
aI1
aI1
aI1
aI1
aI1
aI1
aI1
aI1
aI1
aI1
aI1
aI1
aI1
aI1
aI1
aI1
aI1
aI1
aI1
aI1
aI1
aI1
aI1
aI1
aI1
aI1
aI1
aI1
aI1
aI1
aI1
aI1
aI1
aI1
aI1
aI1
aI1
aI1
aI1
aI1
aI1
aI1
aI1
aI1
aI1
aI1
aI1
aI1
aI1
aI1
aI1
aI1
aI1
aI1
aI1
aI1
aI1
aI1
aI1
aI1
aI1
aI1
aI1
aI1
aI1
aI1
aI1
aI1
aI1
aI1
aI1
aI1
aI1
aI1
aI1
aI1
aI1
aI1
aI1
aI1
aI1
aI1
aI1
aI1
aI1
aI1
aI1
aI1
aI1
aI1
aI1
aI1
aI1
aI1
aI1
aI1
aI1
aI1
aI1
aI1
aI1
aI1
aI1
aI1
aI1
aI1
aI1
aI1
aI1
aI1
aI1
aI1
aI1
aI1
aI1
aI1
aI1
aI1
aI1
aI1
aI1
aI1
aI1
aI1
aI1
aI1
aI1
aI1
aI1
aI1
aI1
aI1
aI1
aI1
aI1
aI1
aI1
aI1
aI1
aI1
aI1
aI1
aI1
aI1
aI1
aI1
aI1
aI1
aI1
aI1
aI1
aI1
aI1
aI1
aI1
aI1
aI1
aI1
aI1
aI1
aI1
aI1
aI1
aI1
aI1
aI1
aI1
aI1
aI1
aI1
aI1
aI1
aI1
aI1
aI1
aI1
aI1
aI1
aI1
aI1
aI1
aI1
aI1
aI1
aI1
aI1
aI1
aI1
aI1
aI1
aI1
aI1
aI1
aI1
aI1
aI1
aI1
aI1
aI1
aI1
aI1
aI1
aI1
aI1
aI1
aI1
aI1
aI1
aI1
aI1
aI1
aI1
aI1
aI1
aI1
aI1
aI1
aI1
aI1
aI1
aI1
aI1
aI1
aI1
aI1
aI1
aI1
aI1
aI1
aI1
aI1
aI1
aI1
aI1
aI1
aI1
aI1
aI1
aI1
aI1
aI1
aI1
aI1
aI1
aI1
aI1
aI1
aI1
aI1
aI1
aI1
aI1
aI1
aI1
aI1
aI1
aI1
aI1
aI1
aI1
aI1
aI1
aI1
aI1
aI1
aI1
aI1
aI1
aI1
aI1
aI1
aI1
aI1
aI1
aI1
aI1
aI1
aI1
aI1
aI1
aI1
aI1
aI1
aI1
aI1
aI1
aI1
aI1
aI1
aI1
aI1
aI1
aI1
aI1
aI1
aI1
aI1
aI1
aI1
aI1
aI1
aI1
aI1
aI1
aI1
aI1
aI1
aI1
aI1
aI1
aI1
aI1
aI1
aI1
aI1
aI1
aI1
aI1
aI1
aI1
aI1
aI1
aI1
aI1
aI1
aI1
aI1
aI1
aI1
aI1
aI1
aI1
aI1
aI1
aI1
aI1
aI1
aI1
aI1
aI1
aI1
aI1
aI1
aI1
aI1
aI1
aI1
aI1
aI1
aI1
aI1
aI1
aI1
aI1
aI1
aI1
aI1
aI1
aI1
aI1
aI1
aI1
aI1
aI1
aI1
aI1
aI1
aI1
aI1
aI1
aI1
aI1
aI1
aI1
aI1
aI1
aI1
aI1
aI1
aI1
aI1
aI1
aI1
aI1
aI1
aI1
aI1
aI1
aI1
aI1
aI1
aI1
aI1
asg18
S'[HorribleSubs] One Piece (01-700) [1080p] (Batch).torrent'
p240
sg20
F-1
sg21
S'/mnt/Media2/Videos/Anime/[HorribleSubs] One Piece (01-700) [1080p] (Batch)'
p241
sg23
F1508559783.5806301
sg24
I231402943
sg25
S'871c23676ffa5c82d937668c28fbe0a52f04c7c9'
p242
sg27
I01
sg28
I00
sg29
I00
sg30
(lp243
(dp244
S'send_stats'
p245
I01
sS'fails'
p246
I0
sS'verified'
p247
I01
sS'scrape_incomplete'
p248
I51
sS'min_announce'
p249
NsS'scrape_downloaded'
p250
I-1
sS'url'
p251
S'http://nyaa.tracker.wf:7777/announce'
p252
sS'last_error'
p253
(dp254
S'category'
p255
S'system'
p256
sS'value'
p257
I0
ssS'fail_limit'
p258
I0
sS'next_announce'
p259
NsS'complete_sent'
p260
I00
sS'source'
p261
I1
sS'trackerid'
p262
S''
sS'start_sent'
p263
I01
sS'tier'
p264
I0
sS'scrape_complete'
p265
I7
sS'message'
p266
S''
sS'updating'
p267
I00
sa(dp268
S'send_stats'
p269
I01
sS'fails'
p270
I0
sS'verified'
p271
I00
sS'scrape_incomplete'
p272
I-1
sS'min_announce'
p273
NsS'scrape_downloaded'
p274
I-1
sS'url'
p275
S'http://open.nyaatorrents.info:6544/announce'
p276
sS'last_error'
p277
(dp278
S'category'
p279
S'system'
p280
sS'value'
p281
I0
ssS'fail_limit'
p282
I0
sS'next_announce'
p283
NsS'complete_sent'
p284
I00
sS'source'
p285
I1
sS'trackerid'
p286
S''
sS'start_sent'
p287
I00
sS'tier'
p288
I1
sS'scrape_complete'
p289
I-1
sS'message'
p290
S''
sS'updating'
p291
I00
sa(dp292
S'send_stats'
p293
I01
sS'fails'
p294
I0
sS'verified'
p295
I00
sS'scrape_incomplete'
p296
I-1
sS'min_announce'
p297
NsS'scrape_downloaded'
p298
I-1
sS'url'
p299
S'udp://open.demonii.com:1337/announce'
p300
sS'last_error'
p301
(dp302
S'category'
p303
S'system'
p304
sS'value'
p305
I0
ssS'fail_limit'
p306
I0
sS'next_announce'
p307
NsS'complete_sent'
p308
I00
sS'source'
p309
I1
sS'trackerid'
p310
S''
sS'start_sent'
p311
I00
sS'tier'
p312
I2
sS'scrape_complete'
p313
I-1
sS'message'
p314
S''
sS'updating'
p315
I00
sa(dp316
S'send_stats'
p317
I01
sS'fails'
p318
I0
sS'verified'
p319
I00
sS'scrape_incomplete'
p320
I-1
sS'min_announce'
p321
NsS'scrape_downloaded'
p322
I-1
sS'url'
p323
S'udp://tracker.openbittorrent.com:80/announce'
p324
sS'last_error'
p325
(dp326
S'category'
p327
S'system'
p328
sS'value'
p329
I0
ssS'fail_limit'
p330
I0
sS'next_announce'
p331
NsS'complete_sent'
p332
I00
sS'source'
p333
I1
sS'trackerid'
p334
S''
sS'start_sent'
p335
I00
sS'tier'
p336
I3
sS'scrape_complete'
p337
I-1
sS'message'
p338
S''
sS'updating'
p339
I00
sa(dp340
S'send_stats'
p341
I01
sS'fails'
p342
I0
sS'verified'
p343
I00
sS'scrape_incomplete'
p344
I-1
sS'min_announce'
p345
NsS'scrape_downloaded'
p346
I-1
sS'url'
p347
S'udp://open.stealth.si:80/announce'
p348
sS'last_error'
p349
(dp350
S'category'
p351
S'system'
p352
sS'value'
p353
I0
ssS'fail_limit'
p354
I0
sS'next_announce'
p355
NsS'complete_sent'
p356
I00
sS'source'
p357
I1
sS'trackerid'
p358
S''
sS'start_sent'
p359
I00
sS'tier'
p360
I4
sS'scrape_complete'
p361
I-1
sS'message'
p362
S''
sS'updating'
p363
I00
sasg128
Nsg129
I00
sg130
F2
sg131
I00
sba(ideluge.core.torrentmanager
TorrentState
p364
(dp365
g7
I-1
sg8
g134
sg10
I00
sg11
I-1
sg12
I00
sg13
I-1
sg14
I00
sg15
I-1
sg16
(lp366
I4
asg18
S'1a00a2a69db8c4baf1fea513bae6068ef1c0c9ac'
p367
sg20
I-1
sg21
S'/mnt/Data/Downloads/Torrents/Complete/TV'
p368
sg23
F1508559412.6729701
sg24
I668175166
sg25
S'1a00a2a69db8c4baf1fea513bae6068ef1c0c9ac'
p369
sg27
I01
sg28
I00
sg29
I00
sg30
(lp370
(dp371
S'send_stats'
p372
I01
sS'fails'
p373
I0
sS'verified'
p374
I00
sS'scrape_incomplete'
p375
I-1
sS'min_announce'
p376
NsS'scrape_downloaded'
p377
I-1
sS'url'
p378
S'udp://tracker.leechers-paradise.org:6969'
p379
sS'last_error'
p380
(dp381
S'category'
p382
S'system'
p383
sS'value'
p384
I0
ssS'fail_limit'
p385
I0
sS'next_announce'
p386
NsS'complete_sent'
p387
I00
sS'source'
p388
I4
sS'trackerid'
p389
S''
sS'start_sent'
p390
I00
sS'tier'
p391
I0
sS'scrape_complete'
p392
I-1
sS'message'
p393
S''
sS'updating'
p394
I00
sa(dp395
S'send_stats'
p396
I01
sS'fails'
p397
I0
sS'verified'
p398
I00
sS'scrape_incomplete'
p399
I-1
sS'min_announce'
p400
NsS'scrape_downloaded'
p401
I-1
sS'url'
p402
S'udp://zer0day.ch:1337'
p403
sS'last_error'
p404
(dp405
S'category'
p406
S'system'
p407
sS'value'
p408
I0
ssS'fail_limit'
p409
I0
sS'next_announce'
p410
NsS'complete_sent'
p411
I00
sS'source'
p412
I4
sS'trackerid'
p413
S''
sS'start_sent'
p414
I00
sS'tier'
p415
I1
sS'scrape_complete'
p416
I-1
sS'message'
p417
S''
sS'updating'
p418
I00
sa(dp419
S'send_stats'
p420
I01
sS'fails'
p421
I0
sS'verified'
p422
I00
sS'scrape_incomplete'
p423
I-1
sS'min_announce'
p424
NsS'scrape_downloaded'
p425
I-1
sS'url'
p426
S'udp://open.demonii.com:1337'
p427
sS'last_error'
p428
(dp429
S'category'
p430
S'system'
p431
sS'value'
p432
I0
ssS'fail_limit'
p433
I0
sS'next_announce'
p434
NsS'complete_sent'
p435
I00
sS'source'
p436
I4
sS'trackerid'
p437
S''
sS'start_sent'
p438
I00
sS'tier'
p439
I2
sS'scrape_complete'
p440
I-1
sS'message'
p441
S''
sS'updating'
p442
I00
sa(dp443
S'send_stats'
p444
I01
sS'fails'
p445
I0
sS'verified'
p446
I00
sS'scrape_incomplete'
p447
I-1
sS'min_announce'
p448
NsS'scrape_downloaded'
p449
I-1
sS'url'
p450
S'udp://tracker.coppersurfer.tk:6969'
p451
sS'last_error'
p452
(dp453
S'category'
p454
S'system'
p455
sS'value'
p456
I0
ssS'fail_limit'
p457
I0
sS'next_announce'
p458
NsS'complete_sent'
p459
I00
sS'source'
p460
I4
sS'trackerid'
p461
S''
sS'start_sent'
p462
I00
sS'tier'
p463
I3
sS'scrape_complete'
p464
I-1
sS'message'
p465
S''
sS'updating'
p466
I00
sa(dp467
S'send_stats'
p468
I01
sS'fails'
p469
I0
sS'verified'
p470
I00
sS'scrape_incomplete'
p471
I-1
sS'min_announce'
p472
NsS'scrape_downloaded'
p473
I-1
sS'url'
p474
S'udp://exodus.desync.com:6969'
p475
sS'last_error'
p476
(dp477
S'category'
p478
S'system'
p479
sS'value'
p480
I0
ssS'fail_limit'
p481
I0
sS'next_announce'
p482
NsS'complete_sent'
p483
I00
sS'source'
p484
I4
sS'trackerid'
p485
S''
sS'start_sent'
p486
I00
sS'tier'
p487
I4
sS'scrape_complete'
p488
I-1
sS'message'
p489
S''
sS'updating'
p490
I00
sasg128
Nsg129
I00
sg130
F2
sg131
I01
sba(ideluge.core.torrentmanager
TorrentState
p491
(dp492
g7
I-1
sg8
g134
sg10
I00
sg11
I-1
sg12
I00
sg13
I-1
sg14
I00
sg15
I1
sg16
(lp493
I4
aI4
aI4
aI4
aI4
aI4
aI4
aI4
aI4
aI4
aI4
aI4
aI4
aI4
aI4
aI4
aI4
aI4
aI4
aI4
aI4
aI4
aI4
aI4
aI4
aI4
aI4
aI4
aI4
aI4
aI4
aI4
aI4
aI4
asg18
S'5299c58b93eeec2230a6c85e023ff96b0d4501bc'
p494
sg20
I-1
sg21
g137
sg23
F1508559424.809299
sg24
I2834432
sg25
S'5299c58b93eeec2230a6c85e023ff96b0d4501bc'
p495
sg27
I01
sg28
I00
sg29
I01
sg30
(lp496
(dp497
S'send_stats'
p498
I01
sS'fails'
p499
I0
sS'verified'
p500
I00
sS'scrape_incomplete'
p501
I-1
sS'min_announce'
p502
NsS'scrape_downloaded'
p503
I-1
sS'url'
p504
S'udp://tracker.leechers-paradise.org:6969'
p505
sS'last_error'
p506
(dp507
S'category'
p508
S'system'
p509
sS'value'
p510
I0
ssS'fail_limit'
p511
I0
sS'next_announce'
p512
NsS'complete_sent'
p513
I00
sS'source'
p514
I4
sS'trackerid'
p515
S''
sS'start_sent'
p516
I00
sS'tier'
p517
I0
sS'scrape_complete'
p518
I-1
sS'message'
p519
S''
sS'updating'
p520
I00
sa(dp521
S'send_stats'
p522
I01
sS'fails'
p523
I0
sS'verified'
p524
I00
sS'scrape_incomplete'
p525
I-1
sS'min_announce'
p526
NsS'scrape_downloaded'
p527
I-1
sS'url'
p528
S'udp://zer0day.ch:1337'
p529
sS'last_error'
p530
(dp531
S'category'
p532
S'system'
p533
sS'value'
p534
I0
ssS'fail_limit'
p535
I0
sS'next_announce'
p536
NsS'complete_sent'
p537
I00
sS'source'
p538
I4
sS'trackerid'
p539
S''
sS'start_sent'
p540
I00
sS'tier'
p541
I1
sS'scrape_complete'
p542
I-1
sS'message'
p543
S''
sS'updating'
p544
I00
sa(dp545
S'send_stats'
p546
I01
sS'fails'
p547
I0
sS'verified'
p548
I00
sS'scrape_incomplete'
p549
I-1
sS'min_announce'
p550
NsS'scrape_downloaded'
p551
I-1
sS'url'
p552
S'udp://open.demonii.com:1337'
p553
sS'last_error'
p554
(dp555
S'category'
p556
S'system'
p557
sS'value'
p558
I0
ssS'fail_limit'
p559
I0
sS'next_announce'
p560
NsS'complete_sent'
p561
I00
sS'source'
p562
I4
sS'trackerid'
p563
S''
sS'start_sent'
p564
I00
sS'tier'
p565
I2
sS'scrape_complete'
p566
I-1
sS'message'
p567
S''
sS'updating'
p568
I00
sa(dp569
S'send_stats'
p570
I01
sS'fails'
p571
I0
sS'verified'
p572
I00
sS'scrape_incomplete'
p573
I-1
sS'min_announce'
p574
NsS'scrape_downloaded'
p575
I-1
sS'url'
p576
S'udp://tracker.coppersurfer.tk:6969'
p577
sS'last_error'
p578
(dp579
S'category'
p580
S'system'
p581
sS'value'
p582
I0
ssS'fail_limit'
p583
I0
sS'next_announce'
p584
NsS'complete_sent'
p585
I00
sS'source'
p586
I4
sS'trackerid'
p587
S''
sS'start_sent'
p588
I00
sS'tier'
p589
I3
sS'scrape_complete'
p590
I-1
sS'message'
p591
S''
sS'updating'
p592
I00
sa(dp593
S'send_stats'
p594
I01
sS'fails'
p595
I0
sS'verified'
p596
I00
sS'scrape_incomplete'
p597
I-1
sS'min_announce'
p598
NsS'scrape_downloaded'
p599
I-1
sS'url'
p600
S'udp://exodus.desync.com:6969'
p601
sS'last_error'
p602
(dp603
S'category'
p604
S'system'
p605
sS'value'
p606
I0
ssS'fail_limit'
p607
I0
sS'next_announce'
p608
NsS'complete_sent'
p609
I00
sS'source'
p610
I4
sS'trackerid'
p611
S''
sS'start_sent'
p612
I00
sS'tier'
p613
I4
sS'scrape_complete'
p614
I-1
sS'message'
p615
S''
sS'updating'
p616
I00
sasg128
Nsg129
I00
sg130
F2
sg131
I00
sbasb.